; Function Attrs: mustprogress nounwind uwtable
define hidden void @_ZN16ShenandoahFullGC10entry_fullEN7GCCause5CauseE(ptr nocapture noundef nonnull readonly align 8 dereferenceable(24) %0, i32 noundef %1) local_unnamed_addr #0 align 2 {
  %3 = alloca %class.ShenandoahMetricsSnapshot, align 8
  %4 = alloca %class.ShenandoahPausePhase, align 8
  %5 = alloca %class.EventMarkWithLogFunction, align 8
  %6 = alloca %class.ShenandoahWorkerScope, align 8
  call void @_ZN20ShenandoahPausePhaseC1EPKcN22ShenandoahPhaseTimings5PhaseEb(ptr noundef nonnull align 8 dereferenceable(176) %4, ptr noundef nonnull @.str, i32 noundef 222, i1 noundef zeroext true) #13
  call void (ptr, ptr, ...) @_ZN24EventMarkWithLogFunctionIXadL_ZN6Events3logEP6ThreadPKczEEEC2ES4_z(ptr noundef nonnull align 8 dereferenceable(536) %5, ptr noundef nonnull @.str.4, ptr noundef nonnull @.str)
  %7 = load ptr, ptr @_ZN8Universe14_collectedHeapE, align 8
  %8 = getelementptr inbounds i8, ptr %7, i64 504
  %9 = load ptr, ptr %8, align 8
  %10 = call noundef i32 @_ZN22ShenandoahWorkerPolicy23calc_workers_for_fullgcEv() #13
  call void @_ZN21ShenandoahWorkerScopeC1EP13WorkerThreadsjPKcb(ptr noundef nonnull align 8 dereferenceable(16) %6, ptr noundef %9, i32 noundef %10, ptr noundef nonnull @.str.5, i1 noundef zeroext true) #13
  call void @llvm.lifetime.start.p0(i64 56, ptr nonnull %3)
  call void @_ZN25ShenandoahMetricsSnapshotC1Ev(ptr noundef nonnull align 8 dereferenceable(56) %3) #13
  call void @_ZN25ShenandoahMetricsSnapshot11snap_beforeEv(ptr noundef nonnull align 8 dereferenceable(56) %3) #13
  call void @_ZN16ShenandoahFullGC5do_itEN7GCCause5CauseE(ptr noundef nonnull readonly align 8 dereferenceable(24) %0, i32 poison)
  %11 = load ptr, ptr @_ZN8Universe14_collectedHeapE, align 8
  call void @_ZN25ShenandoahMetricsSnapshot10snap_afterEv(ptr noundef nonnull align 8 dereferenceable(56) %3) #13
  %12 = call noundef zeroext i1 @_ZN25ShenandoahMetricsSnapshot16is_good_progressEv(ptr noundef nonnull align 8 dereferenceable(56) %3) #13
  %13 = getelementptr inbounds i8, ptr %11, i64 1480
  br i1 %12, label %14, label %15

14:                                               ; preds = %2
  store volatile i64 0, ptr %13, align 8
  br label %_ZN16ShenandoahFullGC7op_fullEN7GCCause5CauseE.exit

15:                                               ; preds = %2
  %16 = call noundef i64 asm sideeffect "lock xaddq $0,($2)", "=r,0,r,~{cc},~{memory},~{dirflag},~{fpsr},~{flags}"(i64 1, ptr nonnull %13) #13, !srcloc !6
  br label %_ZN16ShenandoahFullGC7op_fullEN7GCCause5CauseE.exit

_ZN16ShenandoahFullGC7op_fullEN7GCCause5CauseE.exit: ; preds = %14, %15
  %17 = getelementptr inbounds i8, ptr %11, i64 1648
  %18 = load ptr, ptr %17, align 8
  %19 = load ptr, ptr %18, align 8
  %20 = getelementptr inbounds i8, ptr %19, i64 72
  %21 = load ptr, ptr %20, align 8
  call void %21(ptr noundef nonnull align 8 dereferenceable(193) %18) #13
  %22 = getelementptr inbounds i8, ptr %11, i64 1632
  %23 = load ptr, ptr %22, align 8
  call void @_ZN25ShenandoahCollectorPolicy19record_success_fullEv(ptr noundef nonnull align 8 dereferenceable(528) %23) #13
  call void @llvm.lifetime.end.p0(i64 56, ptr nonnull %3)
  call void @_ZN21ShenandoahWorkerScopeD1Ev(ptr noundef nonnull align 8 dereferenceable(16) %6) #13
  %24 = load i8, ptr @LogEvents, align 1
  %25 = trunc i8 %24 to i1
  br i1 %25, label %26, label %_ZN24EventMarkWithLogFunctionIXadL_ZN6Events3logEP6ThreadPKczEEED2Ev.exit

26:                                               ; preds = %_ZN16ShenandoahFullGC7op_fullEN7GCCause5CauseE.exit
  call void @_ZN13EventMarkBase7log_endEv(ptr noundef nonnull align 8 dereferenceable(272) %5) #13
  br label %_ZN24EventMarkWithLogFunctionIXadL_ZN6Events3logEP6ThreadPKczEEED2Ev.exit

_ZN24EventMarkWithLogFunctionIXadL_ZN6Events3logEP6ThreadPKczEEED2Ev.exit: ; preds = %_ZN16ShenandoahFullGC7op_fullEN7GCCause5CauseE.exit, %26
  call void @_ZN20ShenandoahPausePhaseD1Ev(ptr noundef nonnull align 8 dereferenceable(176) %4) #13
  ret void
}